; Function Attrs: nounwind uwtable
define dso_local ptr @CallStmtResultDesc(ptr noundef readonly captures(none) %0) local_unnamed_addr #0 {
  %2 = getelementptr inbounds nuw i8, ptr %0, i64 16
  %3 = load ptr, ptr %2, align 8
  %4 = getelementptr inbounds nuw i8, ptr %3, i64 4
  %5 = load i32, ptr %4, align 4
  %6 = zext i32 %5 to i64
  %7 = tail call ptr @SearchSysCache1(i32 noundef 47, i64 noundef %6) #8
  %.not = icmp eq ptr %7, null
  br i1 %.not, label %8, label %12

8:                                                ; preds = %1
  %9 = tail call zeroext i1 @errstart_cold(i32 noundef 21, ptr noundef null) #9
  tail call void @llvm.assume(i1 %9)
  %10 = load i32, ptr %4, align 4
  %11 = tail call i32 (ptr, ...) @errmsg_internal(ptr noundef nonnull @.str.73, i32 noundef %10) #8
  tail call void @errfinish(ptr noundef nonnull @.str.1, i32 noundef 2390, ptr noundef nonnull @__func__.CallStmtResultDesc) #8
  unreachable

12:                                               ; preds = %1
  %13 = tail call ptr @build_function_result_tupdesc_t(ptr noundef nonnull %7) #8
  tail call void @ReleaseSysCache(ptr noundef nonnull %7) #8
  %.not20 = icmp eq ptr %13, null
  br i1 %.not20, label %.loopexit, label %.preheader

.preheader:                                       ; preds = %12
  %invariant.gep = getelementptr i8, ptr %13, i64 28
  %14 = load i32, ptr %13, align 8
  %15 = icmp sgt i32 %14, 0
  br i1 %15, label %.lr.ph, label %.loopexit

.lr.ph:                                           ; preds = %.preheader
  %16 = getelementptr inbounds nuw i8, ptr %0, i64 24
  br label %17

17:                                               ; preds = %.lr.ph, %17
  %indvars.iv = phi i64 [ 0, %.lr.ph ], [ %indvars.iv.next, %17 ]
  %18 = phi i32 [ %14, %.lr.ph ], [ %28, %17 ]
  %19 = sext i32 %18 to i64
  %20 = shl nsw i64 %19, 4
  %21 = load ptr, ptr %16, align 8
  %22 = getelementptr i8, ptr %21, i64 16
  %.val = load ptr, ptr %22, align 8
  %23 = getelementptr inbounds nuw %union.ListCell, ptr %.val, i64 %indvars.iv
  %24 = load ptr, ptr %23, align 8
  %indvars.iv.next = add nuw nsw i64 %indvars.iv, 1
  %25 = trunc i64 %indvars.iv.next to i16
  %.idx = mul nuw nsw i64 %indvars.iv, 100
  %gep = getelementptr i8, ptr %invariant.gep, i64 %20
  %26 = getelementptr i8, ptr %gep, i64 %.idx
  %27 = tail call i32 @exprType(ptr noundef %24) #8
  tail call void @TupleDescInitEntry(ptr noundef nonnull %13, i16 noundef signext %25, ptr noundef nonnull %26, i32 noundef %27, i32 noundef -1, i32 noundef 0) #8
  %28 = load i32, ptr %13, align 8
  %29 = sext i32 %28 to i64
  %30 = icmp slt i64 %indvars.iv.next, %29
  br i1 %30, label %17, label %.loopexit, !llvm.loop !12

.loopexit:                                        ; preds = %17, %.preheader, %12
  ret ptr %13
}